target datalayout = "e-m:e-p270:32:32-p271:32:32-p272:64:64-i64:64-i128:128-f80:128-n8:16:32:64-S128"
target triple = "x86_64-unknown-linux-gnu"

%struct.HIDState = type { %union.anon, i32, i32, i32, i32, i8, i8, ptr, ptr, ptr }
%union.anon = type { %struct.HIDMouseState }
%struct.HIDMouseState = type { [16 x %struct.HIDPointerEvent], i32 }
%struct.HIDPointerEvent = type { i32, i32, i32, i32 }

; Function Attrs: nounwind sspstrong uwtable
define internal void @hid_pointer_sync(ptr noundef %dev) #0 {
entry:
  %dev.addr = alloca ptr, align 8
  %hs = alloca ptr, align 8
  %prev = alloca ptr, align 8
  %curr = alloca ptr, align 8
  %next = alloca ptr, align 8
  %event_compression = alloca i8, align 1
  store ptr %dev, ptr %dev.addr, align 8
  %0 = load ptr, ptr %dev.addr, align 8
  store ptr %0, ptr %hs, align 8
  store i8 0, ptr %event_compression, align 1
  %1 = load ptr, ptr %hs, align 8
  %n = getelementptr inbounds %struct.HIDState, ptr %1, i32 0, i32 2
  %2 = load i32, ptr %n, align 8
  %cmp = icmp eq i32 %2, 15
  br i1 %cmp, label %if.then, label %if.end

if.then:                                          ; preds = %entry
  br label %if.end58

if.end:                                           ; preds = %entry
  %3 = load ptr, ptr %hs, align 8
  %4 = getelementptr inbounds %struct.HIDState, ptr %3, i32 0, i32 0
  %queue = getelementptr inbounds %struct.HIDMouseState, ptr %4, i32 0, i32 0
  %5 = load ptr, ptr %hs, align 8
  %head = getelementptr inbounds %struct.HIDState, ptr %5, i32 0, i32 1
  %6 = load i32, ptr %head, align 4
  %7 = load ptr, ptr %hs, align 8
  %n1 = getelementptr inbounds %struct.HIDState, ptr %7, i32 0, i32 2
  %8 = load i32, ptr %n1, align 8
  %add = add i32 %6, %8
  %sub = sub i32 %add, 1
  %and = and i32 %sub, 15
  %idxprom = zext i32 %and to i64
  %arrayidx = getelementptr [16 x %struct.HIDPointerEvent], ptr %queue, i64 0, i64 %idxprom
  store ptr %arrayidx, ptr %prev, align 8
  %9 = load ptr, ptr %hs, align 8
  %10 = getelementptr inbounds %struct.HIDState, ptr %9, i32 0, i32 0
  %queue2 = getelementptr inbounds %struct.HIDMouseState, ptr %10, i32 0, i32 0
  %11 = load ptr, ptr %hs, align 8
  %head3 = getelementptr inbounds %struct.HIDState, ptr %11, i32 0, i32 1
  %12 = load i32, ptr %head3, align 4
  %13 = load ptr, ptr %hs, align 8
  %n4 = getelementptr inbounds %struct.HIDState, ptr %13, i32 0, i32 2
  %14 = load i32, ptr %n4, align 8
  %add5 = add i32 %12, %14
  %and6 = and i32 %add5, 15
  %idxprom7 = zext i32 %and6 to i64
  %arrayidx8 = getelementptr [16 x %struct.HIDPointerEvent], ptr %queue2, i64 0, i64 %idxprom7
  store ptr %arrayidx8, ptr %curr, align 8
  %15 = load ptr, ptr %hs, align 8
  %16 = getelementptr inbounds %struct.HIDState, ptr %15, i32 0, i32 0
  %queue9 = getelementptr inbounds %struct.HIDMouseState, ptr %16, i32 0, i32 0
  %17 = load ptr, ptr %hs, align 8
  %head10 = getelementptr inbounds %struct.HIDState, ptr %17, i32 0, i32 1
  %18 = load i32, ptr %head10, align 4
  %19 = load ptr, ptr %hs, align 8
  %n11 = getelementptr inbounds %struct.HIDState, ptr %19, i32 0, i32 2
  %20 = load i32, ptr %n11, align 8
  %add12 = add i32 %18, %20
  %add13 = add i32 %add12, 1
  %and14 = and i32 %add13, 15
  %idxprom15 = zext i32 %and14 to i64
  %arrayidx16 = getelementptr [16 x %struct.HIDPointerEvent], ptr %queue9, i64 0, i64 %idxprom15
  store ptr %arrayidx16, ptr %next, align 8
  %21 = load ptr, ptr %hs, align 8
  %n17 = getelementptr inbounds %struct.HIDState, ptr %21, i32 0, i32 2
  %22 = load i32, ptr %n17, align 8
  %cmp18 = icmp ugt i32 %22, 0
  br i1 %cmp18, label %if.then19, label %if.end24

if.then19:                                        ; preds = %if.end
  %23 = load ptr, ptr %curr, align 8
  %buttons_state = getelementptr inbounds %struct.HIDPointerEvent, ptr %23, i32 0, i32 3
  %24 = load i32, ptr %buttons_state, align 4
  %25 = load ptr, ptr %prev, align 8
  %buttons_state20 = getelementptr inbounds %struct.HIDPointerEvent, ptr %25, i32 0, i32 3
  %26 = load i32, ptr %buttons_state20, align 4
  %cmp21 = icmp eq i32 %24, %26
  br i1 %cmp21, label %if.then22, label %if.end23

if.then22:                                        ; preds = %if.then19
  store i8 1, ptr %event_compression, align 1
  br label %if.end23

if.end23:                                         ; preds = %if.then22, %if.then19
  br label %if.end24

if.end24:                                         ; preds = %if.end23, %if.end
  %27 = load i8, ptr %event_compression, align 1
  %tobool = trunc i8 %27 to i1
  br i1 %tobool, label %if.then25, label %if.else42

if.then25:                                        ; preds = %if.end24
  %28 = load ptr, ptr %hs, align 8
  %kind = getelementptr inbounds %struct.HIDState, ptr %28, i32 0, i32 3
  %29 = load i32, ptr %kind, align 4
  %cmp26 = icmp eq i32 %29, 1
  br i1 %cmp26, label %if.then27, label %if.else

if.then27:                                        ; preds = %if.then25
  %30 = load ptr, ptr %curr, align 8
  %xdx = getelementptr inbounds %struct.HIDPointerEvent, ptr %30, i32 0, i32 0
  %31 = load i32, ptr %xdx, align 4
  %32 = load ptr, ptr %prev, align 8
  %xdx28 = getelementptr inbounds %struct.HIDPointerEvent, ptr %32, i32 0, i32 0
  %33 = load i32, ptr %xdx28, align 4
  %add29 = add i32 %33, %31
  store i32 %add29, ptr %xdx28, align 4
  %34 = load ptr, ptr %curr, align 8
  %xdx30 = getelementptr inbounds %struct.HIDPointerEvent, ptr %34, i32 0, i32 0
  store i32 0, ptr %xdx30, align 4
  %35 = load ptr, ptr %curr, align 8
  %ydy = getelementptr inbounds %struct.HIDPointerEvent, ptr %35, i32 0, i32 1
  %36 = load i32, ptr %ydy, align 4
  %37 = load ptr, ptr %prev, align 8
  %ydy31 = getelementptr inbounds %struct.HIDPointerEvent, ptr %37, i32 0, i32 1
  %38 = load i32, ptr %ydy31, align 4
  %add32 = add i32 %38, %36
  store i32 %add32, ptr %ydy31, align 4
  %39 = load ptr, ptr %curr, align 8
  %ydy33 = getelementptr inbounds %struct.HIDPointerEvent, ptr %39, i32 0, i32 1
  store i32 0, ptr %ydy33, align 4
  br label %if.end38

if.else:                                          ; preds = %if.then25
  %40 = load ptr, ptr %curr, align 8
  %xdx34 = getelementptr inbounds %struct.HIDPointerEvent, ptr %40, i32 0, i32 0
  %41 = load i32, ptr %xdx34, align 4
  %42 = load ptr, ptr %prev, align 8
  %xdx35 = getelementptr inbounds %struct.HIDPointerEvent, ptr %42, i32 0, i32 0
  store i32 %41, ptr %xdx35, align 4
  %43 = load ptr, ptr %curr, align 8
  %ydy36 = getelementptr inbounds %struct.HIDPointerEvent, ptr %43, i32 0, i32 1
  %44 = load i32, ptr %ydy36, align 4
  %45 = load ptr, ptr %prev, align 8
  %ydy37 = getelementptr inbounds %struct.HIDPointerEvent, ptr %45, i32 0, i32 1
  store i32 %44, ptr %ydy37, align 4
  br label %if.end38

if.end38:                                         ; preds = %if.else, %if.then27
  %46 = load ptr, ptr %curr, align 8
  %dz = getelementptr inbounds %struct.HIDPointerEvent, ptr %46, i32 0, i32 2
  %47 = load i32, ptr %dz, align 4
  %48 = load ptr, ptr %prev, align 8
  %dz39 = getelementptr inbounds %struct.HIDPointerEvent, ptr %48, i32 0, i32 2
  %49 = load i32, ptr %dz39, align 4
  %add40 = add i32 %49, %47
  store i32 %add40, ptr %dz39, align 4
  %50 = load ptr, ptr %curr, align 8
  %dz41 = getelementptr inbounds %struct.HIDPointerEvent, ptr %50, i32 0, i32 2
  store i32 0, ptr %dz41, align 4
  br label %if.end58

if.else42:                                        ; preds = %if.end24
  %51 = load ptr, ptr %hs, align 8
  %kind43 = getelementptr inbounds %struct.HIDState, ptr %51, i32 0, i32 3
  %52 = load i32, ptr %kind43, align 4
  %cmp44 = icmp eq i32 %52, 1
  br i1 %cmp44, label %if.then45, label %if.else48

if.then45:                                        ; preds = %if.else42
  %53 = load ptr, ptr %next, align 8
  %xdx46 = getelementptr inbounds %struct.HIDPointerEvent, ptr %53, i32 0, i32 0
  store i32 0, ptr %xdx46, align 4
  %54 = load ptr, ptr %next, align 8
  %ydy47 = getelementptr inbounds %struct.HIDPointerEvent, ptr %54, i32 0, i32 1
  store i32 0, ptr %ydy47, align 4
  br label %if.end53

if.else48:                                        ; preds = %if.else42
  %55 = load ptr, ptr %curr, align 8
  %xdx49 = getelementptr inbounds %struct.HIDPointerEvent, ptr %55, i32 0, i32 0
  %56 = load i32, ptr %xdx49, align 4
  %57 = load ptr, ptr %next, align 8
  %xdx50 = getelementptr inbounds %struct.HIDPointerEvent, ptr %57, i32 0, i32 0
  store i32 %56, ptr %xdx50, align 4
  %58 = load ptr, ptr %curr, align 8
  %ydy51 = getelementptr inbounds %struct.HIDPointerEvent, ptr %58, i32 0, i32 1
  %59 = load i32, ptr %ydy51, align 4
  %60 = load ptr, ptr %next, align 8
  %ydy52 = getelementptr inbounds %struct.HIDPointerEvent, ptr %60, i32 0, i32 1
  store i32 %59, ptr %ydy52, align 4
  br label %if.end53

if.end53:                                         ; preds = %if.else48, %if.then45
  %61 = load ptr, ptr %next, align 8
  %dz54 = getelementptr inbounds %struct.HIDPointerEvent, ptr %61, i32 0, i32 2
  store i32 0, ptr %dz54, align 4
  %62 = load ptr, ptr %curr, align 8
  %buttons_state55 = getelementptr inbounds %struct.HIDPointerEvent, ptr %62, i32 0, i32 3
  %63 = load i32, ptr %buttons_state55, align 4
  %64 = load ptr, ptr %next, align 8
  %buttons_state56 = getelementptr inbounds %struct.HIDPointerEvent, ptr %64, i32 0, i32 3
  store i32 %63, ptr %buttons_state56, align 4
  %65 = load ptr, ptr %hs, align 8
  %n57 = getelementptr inbounds %struct.HIDState, ptr %65, i32 0, i32 2
  %66 = load i32, ptr %n57, align 8
  %inc = add i32 %66, 1
  store i32 %inc, ptr %n57, align 8
  %67 = load ptr, ptr %hs, align 8
  %event = getelementptr inbounds %struct.HIDState, ptr %67, i32 0, i32 8
  %68 = load ptr, ptr %event, align 8
  %69 = load ptr, ptr %hs, align 8
  call void %68(ptr noundef %69)
  br label %if.end58

if.end58:                                         ; preds = %if.end53, %if.end38, %if.then
  ret void
}