; Function Attrs: nounwind sspstrong uwtable
define internal void @hid_pointer_sync(ptr noundef %dev) #1 {
entry:
  %n = getelementptr inbounds nuw i8, ptr %dev, i64 264
  %0 = load i32, ptr %n, align 8
  %cmp = icmp eq i32 %0, 15
  br i1 %cmp, label %if.end58, label %if.end

if.end:                                           ; preds = %entry
  %head = getelementptr inbounds nuw i8, ptr %dev, i64 260
  %1 = load i32, ptr %head, align 4
  %add = add i32 %1, %0
  %sub = add i32 %add, 15
  %and = and i32 %sub, 15
  %idxprom = zext nneg i32 %and to i64
  %arrayidx = getelementptr [16 x %struct.HIDPointerEvent], ptr %dev, i64 0, i64 %idxprom
  %and6 = and i32 %add, 15
  %idxprom7 = zext nneg i32 %and6 to i64
  %arrayidx8 = getelementptr [16 x %struct.HIDPointerEvent], ptr %dev, i64 0, i64 %idxprom7
  %add13 = add i32 %add, 1
  %and14 = and i32 %add13, 15
  %idxprom15 = zext nneg i32 %and14 to i64
  %arrayidx16 = getelementptr [16 x %struct.HIDPointerEvent], ptr %dev, i64 0, i64 %idxprom15
  %cmp18.not = icmp eq i32 %0, 0
  br i1 %cmp18.not, label %if.else42, label %if.then19

if.then19:                                        ; preds = %if.end
  %buttons_state = getelementptr inbounds nuw i8, ptr %arrayidx8, i64 12
  %2 = load i32, ptr %buttons_state, align 4
  %buttons_state20 = getelementptr inbounds nuw i8, ptr %arrayidx, i64 12
  %3 = load i32, ptr %buttons_state20, align 4
  %cmp21 = icmp eq i32 %2, %3
  br i1 %cmp21, label %if.then25, label %if.else42

if.then25:                                        ; preds = %if.then19
  %kind = getelementptr inbounds nuw i8, ptr %dev, i64 268
  %4 = load i32, ptr %kind, align 4
  %cmp26 = icmp eq i32 %4, 1
  %5 = load i32, ptr %arrayidx8, align 4
  br i1 %cmp26, label %if.then27, label %if.else

if.then27:                                        ; preds = %if.then25
  %6 = load i32, ptr %arrayidx, align 4
  %add29 = add i32 %6, %5
  store i32 %add29, ptr %arrayidx, align 4
  store i32 0, ptr %arrayidx8, align 4
  %ydy = getelementptr inbounds nuw i8, ptr %arrayidx8, i64 4
  %7 = load i32, ptr %ydy, align 4
  %ydy31 = getelementptr inbounds nuw i8, ptr %arrayidx, i64 4
  %8 = load i32, ptr %ydy31, align 4
  %add32 = add i32 %8, %7
  store i32 %add32, ptr %ydy31, align 4
  store i32 0, ptr %ydy, align 4
  br label %if.end38

if.else:                                          ; preds = %if.then25
  store i32 %5, ptr %arrayidx, align 4
  %ydy36 = getelementptr inbounds nuw i8, ptr %arrayidx8, i64 4
  %9 = load i32, ptr %ydy36, align 4
  %ydy37 = getelementptr inbounds nuw i8, ptr %arrayidx, i64 4
  store i32 %9, ptr %ydy37, align 4
  br label %if.end38

if.end38:                                         ; preds = %if.else, %if.then27
  %dz = getelementptr inbounds nuw i8, ptr %arrayidx8, i64 8
  %10 = load i32, ptr %dz, align 4
  %dz39 = getelementptr inbounds nuw i8, ptr %arrayidx, i64 8
  %11 = load i32, ptr %dz39, align 4
  %add40 = add i32 %11, %10
  store i32 %add40, ptr %dz39, align 4
  store i32 0, ptr %dz, align 4
  br label %if.end58

if.else42:                                        ; preds = %if.end, %if.then19
  %kind43 = getelementptr inbounds nuw i8, ptr %dev, i64 268
  %12 = load i32, ptr %kind43, align 4
  %cmp44 = icmp eq i32 %12, 1
  br i1 %cmp44, label %if.end53, label %if.else48

if.else48:                                        ; preds = %if.else42
  %13 = load i32, ptr %arrayidx8, align 4
  %ydy51 = getelementptr inbounds nuw i8, ptr %arrayidx8, i64 4
  %14 = load i32, ptr %ydy51, align 4
  br label %if.end53

if.end53:                                         ; preds = %if.else42, %if.else48
  %.sink37 = phi i32 [ %13, %if.else48 ], [ 0, %if.else42 ]
  %.sink = phi i32 [ %14, %if.else48 ], [ 0, %if.else42 ]
  store i32 %.sink37, ptr %arrayidx16, align 4
  %15 = getelementptr inbounds nuw i8, ptr %arrayidx16, i64 4
  store i32 %.sink, ptr %15, align 4
  %dz54 = getelementptr inbounds nuw i8, ptr %arrayidx16, i64 8
  store i32 0, ptr %dz54, align 4
  %buttons_state55 = getelementptr inbounds nuw i8, ptr %arrayidx8, i64 12
  %16 = load i32, ptr %buttons_state55, align 4
  %buttons_state56 = getelementptr inbounds nuw i8, ptr %arrayidx16, i64 12
  store i32 %16, ptr %buttons_state56, align 4
  %inc = add i32 %0, 1
  store i32 %inc, ptr %n, align 8
  %event = getelementptr inbounds nuw i8, ptr %dev, i64 288
  %17 = load ptr, ptr %event, align 8
  tail call void %17(ptr noundef nonnull %dev) #11
  br label %if.end58

if.end58:                                         ; preds = %entry, %if.end53, %if.end38
  ret void
}